; Function Attrs: mustprogress nofree norecurse nosync nounwind willreturn memory(argmem: write) uwtable
define void @_ZN6icu_7517CollationSettings15resetReorderingEv(ptr nocapture noundef nonnull writeonly align 8 dereferenceable(852) %this) local_unnamed_addr #7 align 2 {
entry:
  %reorderTable = getelementptr inbounds i8, ptr %this, i64 32
  store ptr null, ptr %reorderTable, align 8
  %minHighNoReorder = getelementptr inbounds i8, ptr %this, i64 40
  store i32 0, ptr %minHighNoReorder, align 8
  %reorderRangesLength = getelementptr inbounds i8, ptr %this, i64 56
  store i32 0, ptr %reorderRangesLength, align 8
  %reorderCodesLength = getelementptr inbounds i8, ptr %this, i64 72
  store i32 0, ptr %reorderCodesLength, align 8
  ret void
}